target datalayout = "e-m:e-p270:32:32-p271:32:32-p272:64:64-i64:64-i128:128-f80:128-n8:16:32:64-S128"
target triple = "x86_64-pc-linux-gnu"

; Function Attrs: inlinehint mustprogress nounwind uwtable
define linkonce_odr hidden noundef zeroext i1 @_ZN6Assimp9IsLineEndIcEEbT_(i8 noundef signext %0) #6 comdat {
  %2 = alloca i8, align 1
  store i8 %0, ptr %2, align 1
  %3 = load i8, ptr %2, align 1
  %4 = sext i8 %3 to i32
  %5 = icmp eq i32 %4, 13
  br i1 %5, label %18, label %6

6:                                                ; preds = %1
  %7 = load i8, ptr %2, align 1
  %8 = sext i8 %7 to i32
  %9 = icmp eq i32 %8, 10
  br i1 %9, label %18, label %10

10:                                               ; preds = %6
  %11 = load i8, ptr %2, align 1
  %12 = sext i8 %11 to i32
  %13 = icmp eq i32 %12, 0
  br i1 %13, label %18, label %14

14:                                               ; preds = %10
  %15 = load i8, ptr %2, align 1
  %16 = sext i8 %15 to i32
  %17 = icmp eq i32 %16, 12
  br label %18

18:                                               ; preds = %14, %10, %6, %1
  %19 = phi i1 [ true, %10 ], [ true, %6 ], [ true, %1 ], [ %17, %14 ]
  ret i1 %19
}

; Function Attrs: inlinehint mustprogress uwtable
define linkonce_odr hidden noundef zeroext i1 @_ZN6Assimp10SkipSpacesIcEEbPKT_PS3_S3_(ptr noundef %0, ptr noundef %1, ptr noundef %2) #11 comdat {
  %4 = alloca ptr, align 8
  %5 = alloca ptr, align 8
  %6 = alloca ptr, align 8
  store ptr %0, ptr %4, align 8
  store ptr %1, ptr %5, align 8
  store ptr %2, ptr %6, align 8
  br label %7

7:                                                ; preds = %23, %3
  %8 = load ptr, ptr %4, align 8
  %9 = load i8, ptr %8, align 1
  %10 = sext i8 %9 to i32
  %11 = icmp eq i32 %10, 32
  br i1 %11, label %17, label %12

12:                                               ; preds = %7
  %13 = load ptr, ptr %4, align 8
  %14 = load i8, ptr %13, align 1
  %15 = sext i8 %14 to i32
  %16 = icmp eq i32 %15, 9
  br i1 %16, label %17, label %21

17:                                               ; preds = %12, %7
  %18 = load ptr, ptr %4, align 8
  %19 = load ptr, ptr %6, align 8
  %20 = icmp ne ptr %18, %19
  br label %21

21:                                               ; preds = %17, %12
  %22 = phi i1 [ false, %12 ], [ %20, %17 ]
  br i1 %22, label %23, label %26

23:                                               ; preds = %21
  %24 = load ptr, ptr %4, align 8
  %25 = getelementptr inbounds nuw i8, ptr %24, i32 1
  store ptr %25, ptr %4, align 8
  br label %7, !llvm.loop !20

26:                                               ; preds = %21
  %27 = load ptr, ptr %4, align 8
  %28 = load ptr, ptr %5, align 8
  store ptr %27, ptr %28, align 8
  %29 = load ptr, ptr %4, align 8
  %30 = load i8, ptr %29, align 1
  %31 = call noundef zeroext i1 @_ZN6Assimp9IsLineEndIcEEbT_(i8 noundef signext %30)
  %32 = xor i1 %31, true
  ret i1 %32
}

; Function Attrs: inlinehint mustprogress nounwind uwtable
define linkonce_odr hidden noundef i32 @_ZN6Assimp9strtoul10EPKcPS1_(ptr noundef %0, ptr noundef %1) #6 comdat {
  %3 = alloca ptr, align 8
  %4 = alloca ptr, align 8
  %5 = alloca i32, align 4
  store ptr %0, ptr %3, align 8
  store ptr %1, ptr %4, align 8
  call void @llvm.lifetime.start.p0(i64 4, ptr %5) #17
  store i32 0, ptr %5, align 4
  br label %6

6:                                                ; preds = %17, %2
  %7 = load ptr, ptr %3, align 8
  %8 = load i8, ptr %7, align 1
  %9 = sext i8 %8 to i32
  %10 = icmp slt i32 %9, 48
  br i1 %10, label %16, label %11

11:                                               ; preds = %6
  %12 = load ptr, ptr %3, align 8
  %13 = load i8, ptr %12, align 1
  %14 = sext i8 %13 to i32
  %15 = icmp sgt i32 %14, 57
  br i1 %15, label %16, label %17

16:                                               ; preds = %11, %6
  br label %27

17:                                               ; preds = %11
  %18 = load i32, ptr %5, align 4
  %19 = mul i32 %18, 10
  %20 = load ptr, ptr %3, align 8
  %21 = load i8, ptr %20, align 1
  %22 = sext i8 %21 to i32
  %23 = sub nsw i32 %22, 48
  %24 = add i32 %19, %23
  store i32 %24, ptr %5, align 4
  %25 = load ptr, ptr %3, align 8
  %26 = getelementptr inbounds nuw i8, ptr %25, i32 1
  store ptr %26, ptr %3, align 8
  br label %6, !llvm.loop !21

27:                                               ; preds = %16
  %28 = load ptr, ptr %4, align 8
  %29 = icmp ne ptr %28, null
  br i1 %29, label %30, label %33

30:                                               ; preds = %27
  %31 = load ptr, ptr %3, align 8
  %32 = load ptr, ptr %4, align 8
  store ptr %31, ptr %32, align 8
  br label %33

33:                                               ; preds = %30, %27
  %34 = load i32, ptr %5, align 4
  call void @llvm.lifetime.end.p0(i64 4, ptr %5) #17
  ret i32 %34
}

; Function Attrs: inlinehint mustprogress uwtable
define linkonce_odr hidden noundef zeroext i1 @_ZN6Assimp10SkipSpacesIcEEbPPKT_S3_(ptr noundef %0, ptr noundef %1) #11 comdat {
  %3 = alloca ptr, align 8
  %4 = alloca ptr, align 8
  store ptr %0, ptr %3, align 8
  store ptr %1, ptr %4, align 8
  %5 = load ptr, ptr %3, align 8
  %6 = load ptr, ptr %5, align 8
  %7 = load ptr, ptr %3, align 8
  %8 = load ptr, ptr %4, align 8
  %9 = call noundef zeroext i1 @_ZN6Assimp10SkipSpacesIcEEbPKT_PS3_S3_(ptr noundef %6, ptr noundef %7, ptr noundef %8)
  ret i1 %9
}

; Function Attrs: mustprogress uwtable
define noundef zeroext i1 @_ZN6Assimp11SMDImporter16ParseUnsignedIntEPKcPS2_S2_Rj(ptr noundef nonnull align 8 dereferenceable(226) %0, ptr noundef %1, ptr noundef %2, ptr noundef %3, ptr noundef nonnull align 4 dereferenceable(4) %4) #3 align 2 {
  %6 = alloca i1, align 1
  %7 = alloca ptr, align 8
  %8 = alloca ptr, align 8
  %9 = alloca ptr, align 8
  %10 = alloca ptr, align 8
  %11 = alloca ptr, align 8
  store ptr %0, ptr %7, align 8
  store ptr %1, ptr %8, align 8
  store ptr %2, ptr %9, align 8
  store ptr %3, ptr %10, align 8
  store ptr %4, ptr %11, align 8
  %12 = load ptr, ptr %10, align 8
  %13 = call noundef zeroext i1 @_ZN6Assimp10SkipSpacesIcEEbPPKT_S3_(ptr noundef %8, ptr noundef %12)
  br i1 %13, label %15, label %14

14:                                               ; preds = %5
  store i1 false, ptr %6, align 1
  br label %20

15:                                               ; preds = %5
  %16 = load ptr, ptr %8, align 8
  %17 = load ptr, ptr %9, align 8
  %18 = call noundef i32 @_ZN6Assimp9strtoul10EPKcPS1_(ptr noundef %16, ptr noundef %17)
  %19 = load ptr, ptr %11, align 8
  store i32 %18, ptr %19, align 4
  store i1 true, ptr %6, align 1
  br label %20

20:                                               ; preds = %15, %14
  %21 = load i1, ptr %6, align 1
  ret i1 %21
}