; Function Attrs: mustprogress nofree norecurse nosync nounwind memory(argmem: readwrite) uwtable
define noundef zeroext i1 @_ZN6Assimp11SMDImporter16ParseUnsignedIntEPKcPS2_S2_Rj(ptr nonnull readnone align 8 captures(none) %0, ptr noundef %1, ptr noundef writeonly captures(address_is_null) %2, ptr noundef %3, ptr noundef nonnull writeonly align 4 captures(none) dereferenceable(4) %4) local_unnamed_addr #17 align 2 {
  %6 = ptrtoint ptr %1 to i64
  %7 = ptrtoint ptr %3 to i64
  %8 = sub i64 %7, %6
  %scevgep.i.i = getelementptr i8, ptr %1, i64 %8
  br label %9

9:                                                ; preds = %12, %5
  %.0.i.i = phi ptr [ %1, %5 ], [ %13, %12 ]
  %10 = load i8, ptr %.0.i.i, align 1
  switch i8 %10, label %.critedge.i.i [
    i8 32, label %11
    i8 9, label %11
  ]

11:                                               ; preds = %9, %9
  %.not.i.i = icmp eq ptr %.0.i.i, %3
  br i1 %.not.i.i, label %.critedge.i.ithread-pre-split, label %12

12:                                               ; preds = %11
  %13 = getelementptr inbounds nuw i8, ptr %.0.i.i, i64 1
  br label %9, !llvm.loop !88

.critedge.i.ithread-pre-split:                    ; preds = %11
  %.pr = load i8, ptr %scevgep.i.i, align 1
  br label %.critedge.i.i

.critedge.i.i:                                    ; preds = %9, %.critedge.i.ithread-pre-split
  %14 = phi i8 [ %.pr, %.critedge.i.ithread-pre-split ], [ %10, %9 ]
  %.0.lcssa.i.i = phi ptr [ %scevgep.i.i, %.critedge.i.ithread-pre-split ], [ %.0.i.i, %9 ]
  %15 = icmp ult i8 %14, 14
  br i1 %15, label %switch.hole_check, label %16

16:                                               ; preds = %switch.hole_check, %.critedge.i.i
  %17 = add i8 %14, -58
  %or.cond11.i = icmp ult i8 %17, -10
  br i1 %or.cond11.i, label %._crit_edge.i, label %.lr.ph.i

.lr.ph.i:                                         ; preds = %16, %.lr.ph.i
  %18 = phi i8 [ %23, %.lr.ph.i ], [ %14, %16 ]
  %.013.i = phi i32 [ %21, %.lr.ph.i ], [ 0, %16 ]
  %.0812.i = phi ptr [ %22, %.lr.ph.i ], [ %.0.lcssa.i.i, %16 ]
  %19 = mul i32 %.013.i, 10
  %narrow.i = add nsw i8 %18, -48
  %20 = zext nneg i8 %narrow.i to i32
  %21 = add i32 %19, %20
  %22 = getelementptr inbounds nuw i8, ptr %.0812.i, i64 1
  %23 = load i8, ptr %22, align 1
  %24 = add i8 %23, -58
  %or.cond.i = icmp ult i8 %24, -10
  br i1 %or.cond.i, label %._crit_edge.i, label %.lr.ph.i, !llvm.loop !89

._crit_edge.i:                                    ; preds = %.lr.ph.i, %16
  %.08.lcssa.i = phi ptr [ %.0.lcssa.i.i, %16 ], [ %22, %.lr.ph.i ]
  %.0.lcssa.i = phi i32 [ 0, %16 ], [ %21, %.lr.ph.i ]
  %.not.i = icmp eq ptr %2, null
  br i1 %.not.i, label %_ZN6Assimp9strtoul10EPKcPS1_.exit, label %25

25:                                               ; preds = %._crit_edge.i
  store ptr %.08.lcssa.i, ptr %2, align 8
  br label %_ZN6Assimp9strtoul10EPKcPS1_.exit

_ZN6Assimp9strtoul10EPKcPS1_.exit:                ; preds = %._crit_edge.i, %25
  store i32 %.0.lcssa.i, ptr %4, align 4
  br label %_ZN6Assimp10SkipSpacesIcEEbPPKT_S3_.exit

switch.hole_check:                                ; preds = %.critedge.i.i
  %switch.maskindex = zext nneg i8 %14 to i16
  %switch.shifted = lshr i16 13313, %switch.maskindex
  %switch.lobit = trunc i16 %switch.shifted to i1
  br i1 %switch.lobit, label %_ZN6Assimp10SkipSpacesIcEEbPPKT_S3_.exit, label %16

_ZN6Assimp10SkipSpacesIcEEbPPKT_S3_.exit:         ; preds = %switch.hole_check, %_ZN6Assimp9strtoul10EPKcPS1_.exit
  %26 = phi i1 [ true, %_ZN6Assimp9strtoul10EPKcPS1_.exit ], [ false, %switch.hole_check ]
  ret i1 %26
}